target datalayout = "e-m:e-p270:32:32-p271:32:32-p272:64:64-i64:64-i128:128-f80:128-n8:16:32:64-S128"
target triple = "x86_64-pc-linux-gnu"

%struct.FLAC__StreamMetadata = type { i32, i32, i32, %union.anon }
%union.anon = type { %struct.FLAC__StreamMetadata_CueSheet }
%struct.FLAC__StreamMetadata_CueSheet = type { [129 x i8], i64, i32, i32, ptr }

; Function Attrs: nounwind sspstrong uwtable
define i32 @FLAC__metadata_object_seektable_template_sort(ptr noundef %0, i32 noundef %1) #0 {
  %3 = alloca ptr, align 8
  %4 = alloca i32, align 4
  %5 = alloca i32, align 4
  store ptr %0, ptr %3, align 8, !tbaa !7
  store i32 %1, ptr %4, align 4, !tbaa !3
  call void @llvm.lifetime.start.p0(i64 4, ptr %5) #12
  %6 = load ptr, ptr %3, align 8, !tbaa !7
  %7 = getelementptr inbounds nuw %struct.FLAC__StreamMetadata, ptr %6, i32 0, i32 3
  %8 = call i32 @FLAC__format_seektable_sort(ptr noundef %7)
  store i32 %8, ptr %5, align 4, !tbaa !3
  %9 = load i32, ptr %4, align 4, !tbaa !3
  %10 = icmp ne i32 %9, 0
  br i1 %10, label %11, label %16

11:                                               ; preds = %2
  %12 = load ptr, ptr %3, align 8, !tbaa !7
  %13 = load i32, ptr %5, align 4, !tbaa !3
  %14 = call i32 @FLAC__metadata_object_seektable_resize_points(ptr noundef %12, i32 noundef %13)
  %15 = icmp ne i32 %14, 0
  br label %16

16:                                               ; preds = %11, %2
  %17 = phi i1 [ true, %2 ], [ %15, %11 ]
  %18 = zext i1 %17 to i32
  call void @llvm.lifetime.end.p0(i64 4, ptr %5) #12
  ret i32 %18
}