; Function Attrs: nounwind sspstrong uwtable
define range(i32 0, 2) i32 @FLAC__metadata_object_seektable_template_sort(ptr noundef %0, i32 noundef %1) local_unnamed_addr #5 {
  %3 = getelementptr inbounds nuw i8, ptr %0, i64 16
  %4 = tail call i32 @FLAC__format_seektable_sort(ptr noundef nonnull %3) #31
  %.not = icmp eq i32 %1, 0
  br i1 %.not, label %7, label %5

5:                                                ; preds = %2
  %6 = tail call i32 @FLAC__metadata_object_seektable_resize_points(ptr noundef nonnull %0, i32 noundef %4)
  br label %7

7:                                                ; preds = %5, %2
  %8 = phi i32 [ 1, %2 ], [ %6, %5 ]
  ret i32 %8
}